; Function Attrs: nounwind uwtable
define hidden void @lj_serialize_dict_prep_mt(ptr noundef %0, ptr noundef %1) local_unnamed_addr #0 {
  %3 = getelementptr inbounds nuw i8, ptr %1, i64 52
  %4 = load i32, ptr %3, align 4, !tbaa !4
  %.not = icmp eq i32 %4, 0
  br i1 %.not, label %5, label %.critedge

5:                                                ; preds = %2
  %6 = tail call i32 @lj_tab_len(ptr noundef nonnull %1) #11
  %.not27 = icmp eq i32 %6, 0
  br i1 %.not27, label %.critedge, label %7

7:                                                ; preds = %5
  %8 = getelementptr inbounds nuw i8, ptr %1, i64 48
  %9 = load i32, ptr %8, align 8, !tbaa !12
  %10 = icmp eq i32 %6, 1
  %11 = add i32 %6, -1
  %12 = tail call range(i32 0, 33) i32 @llvm.ctlz.i32(i32 %11, i1 true)
  %13 = sub nuw nsw i32 32, %12
  %14 = select i1 %10, i32 1, i32 %13
  tail call void @lj_tab_resize(ptr noundef %0, ptr noundef nonnull %1, i32 noundef %9, i32 noundef %14) #11
  %15 = getelementptr inbounds nuw i8, ptr %1, i64 16
  %16 = add i32 %6, 1
  br label %17

17:                                               ; preds = %7, %35
  %indvars.iv = phi i64 [ 1, %7 ], [ %indvars.iv.next, %35 ]
  %18 = load i32, ptr %8, align 8, !tbaa !12
  %19 = zext i32 %18 to i64
  %20 = icmp samesign ult i64 %indvars.iv, %19
  br i1 %20, label %21, label %.critedge

21:                                               ; preds = %17
  %22 = load i64, ptr %15, align 8, !tbaa !13
  %23 = inttoptr i64 %22 to ptr
  %24 = getelementptr inbounds nuw %union.TValue, ptr %23, i64 %indvars.iv
  %25 = load i64, ptr %24, align 8, !tbaa !14
  %26 = ashr i64 %25, 47
  switch i64 %26, label %34 [
    i64 -12, label %27
    i64 -2, label %35
  ]

27:                                               ; preds = %21
  %28 = tail call ptr @lj_tab_get(ptr noundef %0, ptr noundef nonnull %1, ptr noundef nonnull %24) #11
  %29 = load i64, ptr %28, align 8, !tbaa !14
  %30 = icmp eq i64 %29, -1
  br i1 %30, label %31, label %35

31:                                               ; preds = %27
  %32 = add nsw i64 %indvars.iv, -1
  %33 = tail call ptr @lj_tab_newkey(ptr noundef %0, ptr noundef nonnull %1, ptr noundef nonnull %24) #11
  store i64 %32, ptr %33, align 8, !tbaa !14
  br label %35

34:                                               ; preds = %21
  tail call void @lj_err_caller(ptr noundef %0, i32 noundef 3792) #12
  unreachable

35:                                               ; preds = %21, %27, %31
  %indvars.iv.next = add nuw nsw i64 %indvars.iv, 1
  %lftr.wideiv = trunc i64 %indvars.iv.next to i32
  %exitcond.not = icmp eq i32 %16, %lftr.wideiv
  br i1 %exitcond.not, label %.critedge, label %17, !llvm.loop !17

.critedge:                                        ; preds = %35, %17, %5, %2
  ret void
}